target datalayout = "e-m:e-p270:32:32-p271:32:32-p272:64:64-i64:64-i128:128-f80:128-n8:16:32:64-S128"
target triple = "x86_64-pc-linux-gnu"

%struct.cpu_params = type { i32, [512 x i8], i8, i32, i8, i32 }

@common_log_verbosity_thold = external global i32, align 4
@.str.3 = private unnamed_addr constant [76 x i8] c"Not enough set bits in CPU mask (%d) to satisfy requested thread count: %d\0A\00", align 1

; Function Attrs: mustprogress uwtable
define void @_Z22postprocess_cpu_paramsR10cpu_paramsPKS_(ptr noundef nonnull align 4 dereferenceable(532) %0, ptr noundef %1) #4 {
  %3 = alloca ptr, align 8
  %4 = alloca ptr, align 8
  %5 = alloca i32, align 4
  %6 = alloca i32, align 4
  store ptr %0, ptr %3, align 8, !tbaa !29
  store ptr %1, ptr %4, align 8, !tbaa !29
  call void @llvm.lifetime.start.p0(i64 4, ptr %5) #3
  store i32 0, ptr %5, align 4, !tbaa !3
  %7 = load ptr, ptr %3, align 8, !tbaa !29
  %8 = getelementptr inbounds nuw %struct.cpu_params, ptr %7, i32 0, i32 0
  %9 = load i32, ptr %8, align 4, !tbaa !31
  %10 = icmp slt i32 %9, 0
  br i1 %10, label %11, label %22

11:                                               ; preds = %2
  %12 = load ptr, ptr %4, align 8, !tbaa !29
  %13 = icmp ne ptr %12, null
  br i1 %13, label %14, label %17

14:                                               ; preds = %11
  %15 = load ptr, ptr %4, align 8, !tbaa !29
  %16 = load ptr, ptr %3, align 8, !tbaa !29
  call void @llvm.memcpy.p0.p0.i64(ptr align 4 %16, ptr align 4 %15, i64 532, i1 false), !tbaa.struct !34
  br label %21

17:                                               ; preds = %11
  %18 = call noundef i32 @_Z16cpu_get_num_mathv()
  %19 = load ptr, ptr %3, align 8, !tbaa !29
  %20 = getelementptr inbounds nuw %struct.cpu_params, ptr %19, i32 0, i32 0
  store i32 %18, ptr %20, align 4, !tbaa !31
  br label %21

21:                                               ; preds = %17, %14
  br label %22

22:                                               ; preds = %21, %2
  call void @llvm.lifetime.start.p0(i64 4, ptr %6) #3
  store i32 0, ptr %6, align 4, !tbaa !3
  br label %23

23:                                               ; preds = %39, %22
  %24 = load i32, ptr %6, align 4, !tbaa !3
  %25 = icmp slt i32 %24, 512
  br i1 %25, label %27, label %26

26:                                               ; preds = %23
  call void @llvm.lifetime.end.p0(i64 4, ptr %6) #3
  br label %42

27:                                               ; preds = %23
  %28 = load ptr, ptr %3, align 8, !tbaa !29
  %29 = getelementptr inbounds nuw %struct.cpu_params, ptr %28, i32 0, i32 1
  %30 = load i32, ptr %6, align 4, !tbaa !3
  %31 = sext i32 %30 to i64
  %32 = getelementptr inbounds [512 x i8], ptr %29, i64 0, i64 %31
  %33 = load i8, ptr %32, align 1, !tbaa !36, !range !37, !noundef !38
  %34 = trunc i8 %33 to i1
  br i1 %34, label %35, label %38

35:                                               ; preds = %27
  %36 = load i32, ptr %5, align 4, !tbaa !3
  %37 = add nsw i32 %36, 1
  store i32 %37, ptr %5, align 4, !tbaa !3
  br label %38

38:                                               ; preds = %35, %27
  br label %39

39:                                               ; preds = %38
  %40 = load i32, ptr %6, align 4, !tbaa !3
  %41 = add nsw i32 %40, 1
  store i32 %41, ptr %6, align 4, !tbaa !3
  br label %23, !llvm.loop !39

42:                                               ; preds = %26
  %43 = load i32, ptr %5, align 4, !tbaa !3
  %44 = icmp ne i32 %43, 0
  br i1 %44, label %45, label %64

45:                                               ; preds = %42
  %46 = load i32, ptr %5, align 4, !tbaa !3
  %47 = load ptr, ptr %3, align 8, !tbaa !29
  %48 = getelementptr inbounds nuw %struct.cpu_params, ptr %47, i32 0, i32 0
  %49 = load i32, ptr %48, align 4, !tbaa !31
  %50 = icmp slt i32 %46, %49
  br i1 %50, label %51, label %64

51:                                               ; preds = %45
  br label %52

52:                                               ; preds = %51
  %53 = load i32, ptr @common_log_verbosity_thold, align 4, !tbaa !3
  %54 = icmp sle i32 0, %53
  br i1 %54, label %55, label %61

55:                                               ; preds = %52
  %56 = call noundef ptr @_Z15common_log_mainv()
  %57 = load i32, ptr %5, align 4, !tbaa !3
  %58 = load ptr, ptr %3, align 8, !tbaa !29
  %59 = getelementptr inbounds nuw %struct.cpu_params, ptr %58, i32 0, i32 0
  %60 = load i32, ptr %59, align 4, !tbaa !31
  call void (ptr, i32, ptr, ...) @_Z14common_log_addP10common_log14ggml_log_levelPKcz(ptr noundef %56, i32 noundef 3, ptr noundef @.str.3, i32 noundef %57, i32 noundef %60)
  br label %61

61:                                               ; preds = %55, %52
  br label %62

62:                                               ; preds = %61
  br label %63

63:                                               ; preds = %62
  br label %64

64:                                               ; preds = %63, %45, %42
  call void @llvm.lifetime.end.p0(i64 4, ptr %5) #3
  ret void
}