; Function Attrs: mustprogress uwtable
define void @_Z22postprocess_cpu_paramsR10cpu_paramsPKS_(ptr noundef nonnull align 4 captures(none) dereferenceable(532) %0, ptr noundef readonly %1) local_unnamed_addr #3 {
  %3 = load i32, ptr %0, align 4, !tbaa !73
  %4 = icmp slt i32 %3, 0
  br i1 %4, label %5, label %9

5:                                                ; preds = %2
  %.not = icmp eq ptr %1, null
  br i1 %.not, label %7, label %6

6:                                                ; preds = %5
  tail call void @llvm.memcpy.p0.p0.i64(ptr noundef nonnull align 4 dereferenceable(532) %0, ptr noundef nonnull align 4 dereferenceable(532) %1, i64 532, i1 false), !tbaa.struct !76
  br label %9

7:                                                ; preds = %5
  %8 = tail call noundef i32 @_Z16cpu_get_num_mathv()
  store i32 %8, ptr %0, align 4, !tbaa !73
  br label %9

9:                                                ; preds = %6, %7, %2
  %10 = getelementptr inbounds nuw i8, ptr %0, i64 4
  br label %12

11:                                               ; preds = %12
  %.not17 = icmp eq i32 %spec.select, 0
  br i1 %.not17, label %24, label %16

12:                                               ; preds = %9, %12
  %indvars.iv = phi i64 [ 0, %9 ], [ %indvars.iv.next, %12 ]
  %.01518 = phi i32 [ 0, %9 ], [ %spec.select, %12 ]
  %13 = getelementptr inbounds nuw [512 x i8], ptr %10, i64 0, i64 %indvars.iv
  %14 = load i8, ptr %13, align 1, !tbaa !77, !range !79, !noundef !80
  %15 = zext nneg i8 %14 to i32
  %spec.select = add nuw nsw i32 %.01518, %15
  %indvars.iv.next = add nuw nsw i64 %indvars.iv, 1
  %exitcond.not = icmp eq i64 %indvars.iv.next, 512
  br i1 %exitcond.not, label %11, label %12, !llvm.loop !81

16:                                               ; preds = %11
  %17 = load i32, ptr %0, align 4, !tbaa !73
  %18 = icmp slt i32 %spec.select, %17
  %19 = load i32, ptr @common_log_verbosity_thold, align 4
  %20 = icmp sgt i32 %19, -1
  %or.cond = select i1 %18, i1 %20, i1 false
  br i1 %or.cond, label %21, label %24

21:                                               ; preds = %16
  %22 = tail call noundef ptr @_Z15common_log_mainv()
  %23 = load i32, ptr %0, align 4, !tbaa !73
  tail call void (ptr, i32, ptr, ...) @_Z14common_log_addP10common_log14ggml_log_levelPKcz(ptr noundef %22, i32 noundef 3, ptr noundef nonnull @.str.3, i32 noundef %spec.select, i32 noundef %23)
  br label %24

24:                                               ; preds = %21, %16, %11
  ret void
}